target datalayout = "e-m:e-p270:32:32-p271:32:32-p272:64:64-i64:64-i128:128-f80:128-n8:16:32:64-S128"
target triple = "x86_64-pc-linux-gnu"

%"class.boost::urls::ipv6_address" = type { %"struct.std::array" }
%"struct.std::array" = type { [16 x i8] }
%"struct.std::array.1" = type { [4 x i8] }

; Function Attrs: mustprogress nounwind uwtable
define linkonce_odr hidden noundef ptr @_ZNSt14__array_traitsIhLm16EE6_S_ptrERA16_Kh(ptr noundef nonnull align 1 dereferenceable(16) %0) #2 comdat align 2 {
  %2 = alloca ptr, align 8
  store ptr %0, ptr %2, align 8, !tbaa !7
  %3 = load ptr, ptr %2, align 8, !tbaa !7
  %4 = getelementptr inbounds [16 x i8], ptr %3, i64 0, i64 0
  ret ptr %4
}

; Function Attrs: mustprogress nounwind uwtable
define linkonce_odr hidden noundef nonnull align 1 dereferenceable(1) ptr @_ZNSt14__array_traitsIhLm4EE6_S_refERA4_Khm(ptr noundef nonnull align 1 dereferenceable(4) %0, i64 noundef %1) #2 comdat align 2 {
  %3 = alloca ptr, align 8
  %4 = alloca i64, align 8
  store ptr %0, ptr %3, align 8, !tbaa !7
  store i64 %1, ptr %4, align 8, !tbaa !17
  %5 = load ptr, ptr %3, align 8, !tbaa !7
  %6 = load i64, ptr %4, align 8, !tbaa !17
  %7 = getelementptr inbounds nuw [4 x i8], ptr %5, i64 0, i64 %6
  ret ptr %7
}

; Function Attrs: mustprogress nounwind willreturn memory(none) uwtable
define linkonce_odr hidden noundef ptr @_ZNSt5arrayIhLm16EE4dataEv(ptr noundef nonnull align 1 dereferenceable(16) %0) #8 comdat align 2 {
  %2 = alloca ptr, align 8
  store ptr %0, ptr %2, align 8, !tbaa !7
  %3 = load ptr, ptr %2, align 8
  %4 = getelementptr inbounds nuw %"struct.std::array", ptr %3, i32 0, i32 0
  %5 = call noundef ptr @_ZNSt14__array_traitsIhLm16EE6_S_ptrERA16_Kh(ptr noundef nonnull align 1 dereferenceable(16) %4) #16
  ret ptr %5
}

; Function Attrs: mustprogress nounwind uwtable
define linkonce_odr hidden noundef nonnull align 1 dereferenceable(1) ptr @_ZNKSt5arrayIhLm4EEixEm(ptr noundef nonnull align 1 dereferenceable(4) %0, i64 noundef %1) #2 comdat align 2 {
  %3 = alloca ptr, align 8
  %4 = alloca i64, align 8
  store ptr %0, ptr %3, align 8, !tbaa !7
  store i64 %1, ptr %4, align 8, !tbaa !17
  %5 = load ptr, ptr %3, align 8
  %6 = getelementptr inbounds nuw %"struct.std::array.1", ptr %5, i32 0, i32 0
  %7 = load i64, ptr %4, align 8, !tbaa !17
  %8 = call noundef nonnull align 1 dereferenceable(1) ptr @_ZNSt14__array_traitsIhLm4EE6_S_refERA4_Khm(ptr noundef nonnull align 1 dereferenceable(4) %6, i64 noundef %7) #16
  ret ptr %8
}

; Function Attrs: mustprogress nounwind uwtable
define void @_ZN5boost4urls12ipv6_addressC2ERKNS0_12ipv4_addressE(ptr noundef nonnull align 1 dereferenceable(16) %0, ptr noundef nonnull align 4 dereferenceable(4) %1) unnamed_addr #2 align 2 {
  %3 = alloca ptr, align 8
  %4 = alloca ptr, align 8
  %5 = alloca %"struct.std::array.1", align 1
  %6 = alloca %"struct.std::array", align 1
  store ptr %0, ptr %3, align 8, !tbaa !7
  store ptr %1, ptr %4, align 8, !tbaa !7
  %7 = load ptr, ptr %3, align 8
  %8 = getelementptr inbounds nuw %"class.boost::urls::ipv6_address", ptr %7, i32 0, i32 0
  %9 = getelementptr inbounds nuw %"struct.std::array", ptr %8, i32 0, i32 0
  %10 = getelementptr inbounds i8, ptr %9, i64 16
  br label %11

11:                                               ; preds = %11, %2
  %12 = phi ptr [ %9, %2 ], [ %13, %11 ]
  store i8 0, ptr %12, align 1, !tbaa !16
  %13 = getelementptr inbounds i8, ptr %12, i64 1
  %14 = icmp eq ptr %13, %10
  br i1 %14, label %15, label %11

15:                                               ; preds = %11
  call void @llvm.lifetime.start.p0(i64 4, ptr %5) #16
  %16 = load ptr, ptr %4, align 8, !tbaa !7
  %17 = call i32 @_ZNK5boost4urls12ipv4_address8to_bytesEv(ptr noundef nonnull align 4 dereferenceable(4) %16) #16
  %18 = getelementptr inbounds nuw %"struct.std::array.1", ptr %5, i32 0, i32 0
  store i32 %17, ptr %18, align 1
  call void @llvm.lifetime.start.p0(i64 16, ptr %6) #16
  %19 = getelementptr inbounds nuw %"struct.std::array", ptr %6, i32 0, i32 0
  store i8 0, ptr %19, align 1, !tbaa !16
  %20 = getelementptr inbounds i8, ptr %19, i64 1
  store i8 0, ptr %20, align 1, !tbaa !16
  %21 = getelementptr inbounds i8, ptr %19, i64 2
  store i8 0, ptr %21, align 1, !tbaa !16
  %22 = getelementptr inbounds i8, ptr %19, i64 3
  store i8 0, ptr %22, align 1, !tbaa !16
  %23 = getelementptr inbounds i8, ptr %19, i64 4
  store i8 0, ptr %23, align 1, !tbaa !16
  %24 = getelementptr inbounds i8, ptr %19, i64 5
  store i8 0, ptr %24, align 1, !tbaa !16
  %25 = getelementptr inbounds i8, ptr %19, i64 6
  store i8 0, ptr %25, align 1, !tbaa !16
  %26 = getelementptr inbounds i8, ptr %19, i64 7
  store i8 0, ptr %26, align 1, !tbaa !16
  %27 = getelementptr inbounds i8, ptr %19, i64 8
  store i8 0, ptr %27, align 1, !tbaa !16
  %28 = getelementptr inbounds i8, ptr %19, i64 9
  store i8 0, ptr %28, align 1, !tbaa !16
  %29 = getelementptr inbounds i8, ptr %19, i64 10
  store i8 -1, ptr %29, align 1, !tbaa !16
  %30 = getelementptr inbounds i8, ptr %19, i64 11
  store i8 -1, ptr %30, align 1, !tbaa !16
  %31 = getelementptr inbounds i8, ptr %19, i64 12
  %32 = call noundef nonnull align 1 dereferenceable(1) ptr @_ZNKSt5arrayIhLm4EEixEm(ptr noundef nonnull align 1 dereferenceable(4) %5, i64 noundef 0) #16
  %33 = load i8, ptr %32, align 1, !tbaa !16
  store i8 %33, ptr %31, align 1, !tbaa !16
  %34 = getelementptr inbounds i8, ptr %19, i64 13
  %35 = call noundef nonnull align 1 dereferenceable(1) ptr @_ZNKSt5arrayIhLm4EEixEm(ptr noundef nonnull align 1 dereferenceable(4) %5, i64 noundef 1) #16
  %36 = load i8, ptr %35, align 1, !tbaa !16
  store i8 %36, ptr %34, align 1, !tbaa !16
  %37 = getelementptr inbounds i8, ptr %19, i64 14
  %38 = call noundef nonnull align 1 dereferenceable(1) ptr @_ZNKSt5arrayIhLm4EEixEm(ptr noundef nonnull align 1 dereferenceable(4) %5, i64 noundef 2) #16
  %39 = load i8, ptr %38, align 1, !tbaa !16
  store i8 %39, ptr %37, align 1, !tbaa !16
  %40 = getelementptr inbounds i8, ptr %19, i64 15
  %41 = call noundef nonnull align 1 dereferenceable(1) ptr @_ZNKSt5arrayIhLm4EEixEm(ptr noundef nonnull align 1 dereferenceable(4) %5, i64 noundef 3) #16
  %42 = load i8, ptr %41, align 1, !tbaa !16
  store i8 %42, ptr %40, align 1, !tbaa !16
  %43 = getelementptr inbounds nuw %"class.boost::urls::ipv6_address", ptr %7, i32 0, i32 0
  %44 = call noundef ptr @_ZNSt5arrayIhLm16EE4dataEv(ptr noundef nonnull align 1 dereferenceable(16) %6) #19
  call void @llvm.memcpy.p0.p0.i64(ptr align 1 %43, ptr align 1 %44, i64 16, i1 false)
  call void @llvm.lifetime.end.p0(i64 16, ptr %6) #16
  call void @llvm.lifetime.end.p0(i64 4, ptr %5) #16
  ret void
}